target datalayout = "e-m:e-p270:32:32-p271:32:32-p272:64:64-i64:64-i128:128-f80:128-n8:16:32:64-S128"
target triple = "x86_64-pc-linux-gnu"

%struct._object = type { i64, ptr }

@.str.18 = private unnamed_addr constant [6 x i8] c"isssi\00", align 1

; Function Attrs: mustprogress uwtable
define internal void @_ZL10_Py_DECREFP7_object(ptr noundef %0) #4 {
  %2 = alloca ptr, align 8
  store ptr %0, ptr %2, align 8
  %3 = load ptr, ptr %2, align 8
  %4 = getelementptr inbounds %struct._object, ptr %3, i32 0, i32 0
  %5 = load i64, ptr %4, align 8
  %6 = add nsw i64 %5, -1
  store i64 %6, ptr %4, align 8
  %7 = icmp ne i64 %6, 0
  br i1 %7, label %8, label %9

8:                                                ; preds = %1
  br label %11

9:                                                ; preds = %1
  %10 = load ptr, ptr %2, align 8
  call void @_Py_Dealloc(ptr noundef %10)
  br label %11

11:                                               ; preds = %9, %8
  ret void
}

; Function Attrs: mustprogress uwtable
define internal noundef i32 @_ZL7OnErroriPKcS0_S0_iPv(i32 noundef %0, ptr noundef %1, ptr noundef %2, ptr noundef %3, i32 noundef %4, ptr noundef %5) #4 {
  %7 = alloca i32, align 4
  %8 = alloca ptr, align 8
  %9 = alloca ptr, align 8
  %10 = alloca ptr, align 8
  %11 = alloca i32, align 4
  %12 = alloca ptr, align 8
  %13 = alloca i32, align 4
  %14 = alloca ptr, align 8
  %15 = alloca ptr, align 8
  %16 = alloca ptr, align 8
  store i32 %0, ptr %7, align 4
  store ptr %1, ptr %8, align 8
  store ptr %2, ptr %9, align 8
  store ptr %3, ptr %10, align 8
  store i32 %4, ptr %11, align 4
  store ptr %5, ptr %12, align 8
  %17 = call i32 @PyGILState_Ensure()
  store i32 %17, ptr %13, align 4
  %18 = load ptr, ptr %12, align 8
  store ptr %18, ptr %14, align 8
  %19 = load i32, ptr %7, align 4
  %20 = load ptr, ptr %8, align 8
  %21 = load ptr, ptr %9, align 8
  %22 = load ptr, ptr %10, align 8
  %23 = load i32, ptr %11, align 4
  %24 = call ptr (ptr, ...) @Py_BuildValue(ptr noundef @.str.18, i32 noundef %19, ptr noundef %20, ptr noundef %21, ptr noundef %22, i32 noundef %23)
  store ptr %24, ptr %15, align 8
  %25 = load ptr, ptr %14, align 8
  %26 = load ptr, ptr %15, align 8
  %27 = call ptr @PyObject_Call(ptr noundef %25, ptr noundef %26, ptr noundef null)
  store ptr %27, ptr %16, align 8
  %28 = load ptr, ptr %16, align 8
  %29 = icmp eq ptr %28, null
  br i1 %29, label %30, label %31

30:                                               ; preds = %6
  call void @PyErr_Print()
  br label %33

31:                                               ; preds = %6
  %32 = load ptr, ptr %16, align 8
  call void @_ZL10_Py_DECREFP7_object(ptr noundef %32)
  br label %33

33:                                               ; preds = %31, %30
  %34 = load ptr, ptr %15, align 8
  call void @_ZL10_Py_DECREFP7_object(ptr noundef %34)
  %35 = load i32, ptr %13, align 4
  call void @PyGILState_Release(i32 noundef %35)
  ret i32 0
}