; Function Attrs: mustprogress uwtable
define internal noundef i32 @_ZL7OnErroriPKcS0_S0_iPv(i32 noundef %0, ptr noundef %1, ptr noundef %2, ptr noundef %3, i32 noundef %4, ptr noundef %5) #4 {
  %7 = tail call i32 @PyGILState_Ensure()
  %8 = tail call ptr (ptr, ...) @Py_BuildValue(ptr noundef nonnull @.str.18, i32 noundef %0, ptr noundef %1, ptr noundef %2, ptr noundef %3, i32 noundef %4)
  %9 = tail call ptr @PyObject_Call(ptr noundef %5, ptr noundef %8, ptr noundef null)
  %10 = icmp eq ptr %9, null
  br i1 %10, label %11, label %12

11:                                               ; preds = %6
  tail call void @PyErr_Print()
  br label %_ZL10_Py_DECREFP7_object.exit

12:                                               ; preds = %6
  %13 = load i64, ptr %9, align 8
  %14 = add nsw i64 %13, -1
  store i64 %14, ptr %9, align 8
  %.not.i = icmp eq i64 %14, 0
  br i1 %.not.i, label %15, label %_ZL10_Py_DECREFP7_object.exit

15:                                               ; preds = %12
  tail call void @_Py_Dealloc(ptr noundef nonnull %9)
  br label %_ZL10_Py_DECREFP7_object.exit

_ZL10_Py_DECREFP7_object.exit:                    ; preds = %15, %12, %11
  %16 = load i64, ptr %8, align 8
  %17 = add nsw i64 %16, -1
  store i64 %17, ptr %8, align 8
  %.not.i11 = icmp eq i64 %17, 0
  br i1 %.not.i11, label %18, label %_ZL10_Py_DECREFP7_object.exit12

18:                                               ; preds = %_ZL10_Py_DECREFP7_object.exit
  tail call void @_Py_Dealloc(ptr noundef nonnull %8)
  br label %_ZL10_Py_DECREFP7_object.exit12

_ZL10_Py_DECREFP7_object.exit12:                  ; preds = %_ZL10_Py_DECREFP7_object.exit, %18
  tail call void @PyGILState_Release(i32 noundef %7)
  ret i32 0
}